; Function Attrs: mustprogress uwtable
define internal noundef zeroext i1 @"_ZNSt17_Function_handlerIFbRN8facebook5velox6memory10AllocationEEZNS2_15MemoryAllocator14growContiguousEmRNS2_20ContiguousAllocationESt8functionIFvlbEEE3$_0E9_M_invokeERKSt9_Any_dataS4_"(ptr nocapture noundef nonnull readonly align 8 dereferenceable(16) %__functor, ptr noundef nonnull align 8 dereferenceable(36) %__args) #4 align 2 personality ptr @__gxx_personality_v0 {
entry:
  %agg.tmp.i.i.i = alloca %"class.std::function", align 8
  %__functor.val = load ptr, ptr %__functor, align 8
  call void @llvm.lifetime.start.p0(i64 32, ptr nonnull %agg.tmp.i.i.i)
  %0 = load ptr, ptr %__functor.val, align 8
  %vtable.i.i.i = load ptr, ptr %0, align 8
  %vfn.i.i.i = getelementptr inbounds i8, ptr %vtable.i.i.i, i64 40
  %1 = load ptr, ptr %vfn.i.i.i, align 8
  %call.i.i.i = tail call noundef i64 %1(ptr noundef nonnull align 8 dereferenceable(880) %0, ptr noundef nonnull align 8 dereferenceable(36) %__args)
  %2 = getelementptr inbounds i8, ptr %__functor.val, i64 8
  %3 = load ptr, ptr %2, align 8
  %4 = load i64, ptr %3, align 8
  %5 = getelementptr inbounds i8, ptr %__functor.val, i64 16
  %6 = load ptr, ptr %5, align 8
  %7 = getelementptr inbounds i8, ptr %__functor.val, i64 24
  %8 = load ptr, ptr %7, align 8
  %_M_manager.i.i.i.i.i = getelementptr inbounds i8, ptr %agg.tmp.i.i.i, i64 16
  %_M_invoker.i.i.i.i = getelementptr inbounds i8, ptr %agg.tmp.i.i.i, i64 24
  %_M_manager.i.i.i.i.i.i = getelementptr inbounds i8, ptr %8, i64 16
  call void @llvm.memset.p0.i64(ptr noundef nonnull align 8 dereferenceable(32) %agg.tmp.i.i.i, i8 0, i64 32, i1 false)
  %9 = load ptr, ptr %_M_manager.i.i.i.i.i.i, align 8
  %tobool.not.i.i.not.i.i.i.i = icmp eq ptr %9, null
  br i1 %tobool.not.i.i.not.i.i.i.i, label %_ZNSt8functionIFvlbEEC2ERKS1_.exit.i.i.i, label %if.then.i.i.i.i

if.then.i.i.i.i:                                  ; preds = %entry
  %call3.i.i.i.i = invoke noundef zeroext i1 %9(ptr noundef nonnull align 8 dereferenceable(16) %agg.tmp.i.i.i, ptr noundef nonnull align 8 dereferenceable(16) %8, i32 noundef 2)
          to label %invoke.cont.i.i.i.i unwind label %lpad.i.i.i.i

invoke.cont.i.i.i.i:                              ; preds = %if.then.i.i.i.i
  %_M_invoker4.i.i.i.i = getelementptr inbounds i8, ptr %8, i64 24
  %10 = load ptr, ptr %_M_invoker4.i.i.i.i, align 8
  store ptr %10, ptr %_M_invoker.i.i.i.i, align 8
  %11 = load ptr, ptr %_M_manager.i.i.i.i.i.i, align 8
  store ptr %11, ptr %_M_manager.i.i.i.i.i, align 8
  br label %_ZNSt8functionIFvlbEEC2ERKS1_.exit.i.i.i

lpad.i.i.i.i:                                     ; preds = %if.then.i.i.i.i
  %12 = landingpad { ptr, i32 }
          cleanup
  %13 = load ptr, ptr %_M_manager.i.i.i.i.i, align 8
  %tobool.not.i.i.i.i.i = icmp eq ptr %13, null
  br i1 %tobool.not.i.i.i.i.i, label %common.resume.i.i.i, label %if.then.i.i.i.i.i

if.then.i.i.i.i.i:                                ; preds = %lpad.i.i.i.i
  %call.i.i.i.i.i = invoke noundef zeroext i1 %13(ptr noundef nonnull align 8 dereferenceable(16) %agg.tmp.i.i.i, ptr noundef nonnull align 8 dereferenceable(16) %agg.tmp.i.i.i, i32 noundef 3)
          to label %common.resume.i.i.i unwind label %terminate.lpad.i.i.i.i.i

terminate.lpad.i.i.i.i.i:                         ; preds = %if.then.i.i.i.i.i
  %14 = landingpad { ptr, i32 }
          catch ptr null
  %15 = extractvalue { ptr, i32 } %14, 0
  call void @__clang_call_terminate(ptr %15) #27
  unreachable

common.resume.i.i.i:                              ; preds = %if.then.i.i9.i.i.i, %lpad.i.i.i, %if.then.i.i.i.i.i, %lpad.i.i.i.i
  %common.resume.op.i.i.i = phi { ptr, i32 } [ %12, %if.then.i.i.i.i.i ], [ %12, %lpad.i.i.i.i ], [ %20, %lpad.i.i.i ], [ %20, %if.then.i.i9.i.i.i ]
  resume { ptr, i32 } %common.resume.op.i.i.i

_ZNSt8functionIFvlbEEC2ERKS1_.exit.i.i.i:         ; preds = %invoke.cont.i.i.i.i, %entry
  %vtable2.i.i.i = load ptr, ptr %0, align 8
  %vfn3.i.i.i = getelementptr inbounds i8, ptr %vtable2.i.i.i, i64 168
  %16 = load ptr, ptr %vfn3.i.i.i, align 8
  %call4.i.i.i = invoke noundef zeroext i1 %16(ptr noundef nonnull align 8 dereferenceable(880) %0, i64 noundef %4, ptr noundef nonnull align 8 dereferenceable(32) %6, ptr noundef nonnull %agg.tmp.i.i.i)
          to label %invoke.cont.i.i.i unwind label %lpad.i.i.i

invoke.cont.i.i.i:                                ; preds = %_ZNSt8functionIFvlbEEC2ERKS1_.exit.i.i.i
  %17 = load ptr, ptr %_M_manager.i.i.i.i.i, align 8
  %tobool.not.i.i2.i.i.i = icmp eq ptr %17, null
  br i1 %tobool.not.i.i2.i.i.i, label %"_ZSt10__invoke_rIbRZN8facebook5velox6memory15MemoryAllocator14growContiguousEmRNS2_20ContiguousAllocationESt8functionIFvlbEEE3$_0JRNS2_10AllocationEEENSt9enable_ifIX16is_invocable_r_vIT_T0_DpT1_EESE_E4typeEOSF_DpOSG_.exit", label %if.then.i.i3.i.i.i

if.then.i.i3.i.i.i:                               ; preds = %invoke.cont.i.i.i
  %call.i.i4.i.i.i = invoke noundef zeroext i1 %17(ptr noundef nonnull align 8 dereferenceable(16) %agg.tmp.i.i.i, ptr noundef nonnull align 8 dereferenceable(16) %agg.tmp.i.i.i, i32 noundef 3)
          to label %"_ZSt10__invoke_rIbRZN8facebook5velox6memory15MemoryAllocator14growContiguousEmRNS2_20ContiguousAllocationESt8functionIFvlbEEE3$_0JRNS2_10AllocationEEENSt9enable_ifIX16is_invocable_r_vIT_T0_DpT1_EESE_E4typeEOSF_DpOSG_.exit" unwind label %terminate.lpad.i.i5.i.i.i

terminate.lpad.i.i5.i.i.i:                        ; preds = %if.then.i.i3.i.i.i
  %18 = landingpad { ptr, i32 }
          catch ptr null
  %19 = extractvalue { ptr, i32 } %18, 0
  call void @__clang_call_terminate(ptr %19) #27
  unreachable

lpad.i.i.i:                                       ; preds = %_ZNSt8functionIFvlbEEC2ERKS1_.exit.i.i.i
  %20 = landingpad { ptr, i32 }
          cleanup
  %21 = load ptr, ptr %_M_manager.i.i.i.i.i, align 8
  %tobool.not.i.i8.i.i.i = icmp eq ptr %21, null
  br i1 %tobool.not.i.i8.i.i.i, label %common.resume.i.i.i, label %if.then.i.i9.i.i.i

if.then.i.i9.i.i.i:                               ; preds = %lpad.i.i.i
  %call.i.i10.i.i.i = invoke noundef zeroext i1 %21(ptr noundef nonnull align 8 dereferenceable(16) %agg.tmp.i.i.i, ptr noundef nonnull align 8 dereferenceable(16) %agg.tmp.i.i.i, i32 noundef 3)
          to label %common.resume.i.i.i unwind label %terminate.lpad.i.i11.i.i.i

terminate.lpad.i.i11.i.i.i:                       ; preds = %if.then.i.i9.i.i.i
  %22 = landingpad { ptr, i32 }
          catch ptr null
  %23 = extractvalue { ptr, i32 } %22, 0
  call void @__clang_call_terminate(ptr %23) #27
  unreachable

"_ZSt10__invoke_rIbRZN8facebook5velox6memory15MemoryAllocator14growContiguousEmRNS2_20ContiguousAllocationESt8functionIFvlbEEE3$_0JRNS2_10AllocationEEENSt9enable_ifIX16is_invocable_r_vIT_T0_DpT1_EESE_E4typeEOSF_DpOSG_.exit": ; preds = %invoke.cont.i.i.i, %if.then.i.i3.i.i.i
  call void @llvm.lifetime.end.p0(i64 32, ptr nonnull %agg.tmp.i.i.i)
  ret i1 %call4.i.i.i
}